target datalayout = "e-m:e-p270:32:32-p271:32:32-p272:64:64-i64:64-i128:128-f80:128-n8:16:32:64-S128"
target triple = "x86_64-pc-linux-gnu"

@ifcp_desegment = internal global i8 1, align 1
@ifcp_handle = internal global ptr null, align 8
@ifcp_header_4_bytes = internal constant [4 x i8] c"\02\01\FD\FE", align 1

; Function Attrs: null_pointer_is_valid sspstrong uwtable
define internal i32 @dissect_ifcp(ptr noundef %0, ptr noundef %1, ptr noundef %2, ptr noundef %3) #0 {
  %5 = alloca ptr, align 8
  %6 = alloca ptr, align 8
  %7 = alloca ptr, align 8
  %8 = alloca ptr, align 8
  store ptr %0, ptr %5, align 8
  store ptr %1, ptr %6, align 8
  store ptr %2, ptr %7, align 8
  store ptr %3, ptr %8, align 8
  %9 = load ptr, ptr %5, align 8
  %10 = load ptr, ptr %6, align 8
  %11 = load ptr, ptr %7, align 8
  %12 = load i8, ptr @ifcp_desegment, align 1, !range !6, !noundef !7
  %13 = trunc i8 %12 to i1
  %14 = load ptr, ptr %8, align 8
  call void @tcp_dissect_pdus(ptr noundef %9, ptr noundef %10, ptr noundef %11, i1 noundef zeroext %13, i32 noundef 16, ptr noundef @get_ifcp_pdu_len, ptr noundef @dissect_ifcp_pdu, ptr noundef %14)
  %15 = load ptr, ptr %5, align 8
  %16 = call i32 @tvb_captured_length(ptr noundef %15)
  ret i32 %16
}

; Function Attrs: null_pointer_is_valid sspstrong uwtable
define internal zeroext i1 @ifcp_header_test(ptr noundef %0, i32 noundef %1) #0 {
  %3 = alloca i1, align 1
  %4 = alloca ptr, align 8
  %5 = alloca i32, align 4
  %6 = alloca i16, align 2
  %7 = alloca i16, align 2
  %8 = alloca i32, align 4
  store ptr %0, ptr %4, align 8
  store i32 %1, ptr %5, align 4
  call void @llvm.lifetime.start.p0(i64 2, ptr %6) #3
  call void @llvm.lifetime.start.p0(i64 2, ptr %7) #3
  %9 = load ptr, ptr %4, align 8
  %10 = load i32, ptr %5, align 4
  %11 = call i32 @tvb_captured_length_remaining(ptr noundef %9, i32 noundef %10)
  %12 = icmp slt i32 %11, 16
  br i1 %12, label %13, label %14

13:                                               ; preds = %2
  store i1 false, ptr %3, align 1
  store i32 1, ptr %8, align 4
  br label %53

14:                                               ; preds = %2
  %15 = load ptr, ptr %4, align 8
  %16 = load i32, ptr %5, align 4
  %17 = call i32 @tvb_memeql(ptr noundef %15, i32 noundef %16, ptr noundef @ifcp_header_4_bytes, i64 noundef 4)
  %18 = icmp ne i32 %17, 0
  br i1 %18, label %19, label %20

19:                                               ; preds = %14
  store i1 false, ptr %3, align 1
  store i32 1, ptr %8, align 4
  br label %53

20:                                               ; preds = %14
  %21 = load ptr, ptr %4, align 8
  %22 = load i32, ptr %5, align 4
  %23 = add i32 %22, 12
  %24 = call zeroext i16 @tvb_get_ntohs(ptr noundef %21, i32 noundef %23)
  %25 = zext i16 %24 to i32
  %26 = and i32 %25, 1023
  %27 = trunc i32 %26 to i16
  store i16 %27, ptr %6, align 2
  %28 = load i16, ptr %6, align 2
  %29 = zext i16 %28 to i32
  %30 = icmp slt i32 %29, 15
  br i1 %30, label %35, label %31

31:                                               ; preds = %20
  %32 = load i16, ptr %6, align 2
  %33 = zext i16 %32 to i32
  %34 = icmp sgt i32 %33, 545
  br i1 %34, label %35, label %36

35:                                               ; preds = %31, %20
  store i1 false, ptr %3, align 1
  store i32 1, ptr %8, align 4
  br label %53

36:                                               ; preds = %31
  %37 = load ptr, ptr %4, align 8
  %38 = load i32, ptr %5, align 4
  %39 = add i32 %38, 14
  %40 = call zeroext i16 @tvb_get_ntohs(ptr noundef %37, i32 noundef %39)
  %41 = zext i16 %40 to i32
  %42 = and i32 %41, 1023
  %43 = trunc i32 %42 to i16
  store i16 %43, ptr %7, align 2
  %44 = load i16, ptr %6, align 2
  %45 = zext i16 %44 to i32
  %46 = load i16, ptr %7, align 2
  %47 = zext i16 %46 to i32
  %48 = xor i32 %47, -1
  %49 = and i32 %48, 1023
  %50 = icmp ne i32 %45, %49
  br i1 %50, label %51, label %52

51:                                               ; preds = %36
  store i1 false, ptr %3, align 1
  store i32 1, ptr %8, align 4
  br label %53

52:                                               ; preds = %36
  store i1 true, ptr %3, align 1
  store i32 1, ptr %8, align 4
  br label %53

53:                                               ; preds = %52, %51, %35, %19, %13
  call void @llvm.lifetime.end.p0(i64 2, ptr %7) #3
  call void @llvm.lifetime.end.p0(i64 2, ptr %6) #3
  %54 = load i1, ptr %3, align 1
  ret i1 %54
}

; Function Attrs: null_pointer_is_valid sspstrong uwtable
define internal zeroext i1 @dissect_ifcp_heur(ptr noundef %0, ptr noundef %1, ptr noundef %2, ptr noundef %3) #0 {
  %5 = alloca i1, align 1
  %6 = alloca ptr, align 8
  %7 = alloca ptr, align 8
  %8 = alloca ptr, align 8
  %9 = alloca ptr, align 8
  %10 = alloca ptr, align 8
  store ptr %0, ptr %6, align 8
  store ptr %1, ptr %7, align 8
  store ptr %2, ptr %8, align 8
  store ptr %3, ptr %9, align 8
  %11 = load ptr, ptr %6, align 8
  %12 = call zeroext i1 @ifcp_header_test(ptr noundef %11, i32 noundef 0)
  br i1 %12, label %14, label %13

13:                                               ; preds = %4
  store i1 false, ptr %5, align 1
  br label %28

14:                                               ; preds = %4
  %15 = load ptr, ptr %6, align 8
  %16 = load ptr, ptr %7, align 8
  %17 = load ptr, ptr %8, align 8
  %18 = load ptr, ptr %9, align 8
  %19 = call i32 @dissect_ifcp(ptr noundef %15, ptr noundef %16, ptr noundef %17, ptr noundef %18)
  %20 = load ptr, ptr @ifcp_handle, align 8
  %21 = icmp ne ptr %20, null
  br i1 %21, label %22, label %27

22:                                               ; preds = %14
  call void @llvm.lifetime.start.p0(i64 8, ptr %10) #3
  %23 = load ptr, ptr %7, align 8
  %24 = call ptr @find_or_create_conversation(ptr noundef %23)
  store ptr %24, ptr %10, align 8
  %25 = load ptr, ptr %10, align 8
  %26 = load ptr, ptr @ifcp_handle, align 8
  call void @conversation_set_dissector(ptr noundef %25, ptr noundef %26)
  call void @llvm.lifetime.end.p0(i64 8, ptr %10) #3
  br label %27

27:                                               ; preds = %22, %14
  store i1 true, ptr %5, align 1
  br label %28

28:                                               ; preds = %27, %13
  %29 = load i1, ptr %5, align 1
  ret i1 %29
}