; Function Attrs: null_pointer_is_valid sspstrong uwtable
define internal noundef zeroext i1 @dissect_ifcp_heur(ptr noundef %0, ptr noundef %1, ptr noundef %2, ptr noundef %3) #0 {
  %5 = tail call i32 @tvb_captured_length_remaining(ptr noundef %0, i32 noundef 0)
  %6 = icmp slt i32 %5, 16
  br i1 %6, label %ifcp_header_test.exit.thread, label %7

7:                                                ; preds = %4
  %8 = tail call i32 @tvb_memeql(ptr noundef %0, i32 noundef 0, ptr noundef nonnull @ifcp_header_4_bytes, i64 noundef 4)
  %.not.i = icmp eq i32 %8, 0
  br i1 %.not.i, label %9, label %ifcp_header_test.exit.thread

9:                                                ; preds = %7
  %10 = tail call zeroext i16 @tvb_get_ntohs(ptr noundef %0, i32 noundef 12)
  %11 = and i16 %10, 1023
  %12 = add nsw i16 %11, -546
  %or.cond.i = icmp ult i16 %12, -531
  br i1 %or.cond.i, label %ifcp_header_test.exit.thread, label %ifcp_header_test.exit

ifcp_header_test.exit:                            ; preds = %9
  %13 = tail call zeroext i16 @tvb_get_ntohs(ptr noundef %0, i32 noundef 14)
  %14 = xor i16 %13, %10
  %15 = and i16 %14, 1023
  %.not15.i = icmp eq i16 %15, 1023
  br i1 %.not15.i, label %16, label %ifcp_header_test.exit.thread

16:                                               ; preds = %ifcp_header_test.exit
  %17 = load i8, ptr @ifcp_desegment, align 1, !range !6, !noundef !7
  %18 = trunc nuw i8 %17 to i1
  tail call void @tcp_dissect_pdus(ptr noundef %0, ptr noundef %1, ptr noundef %2, i1 noundef zeroext %18, i32 noundef 16, ptr noundef nonnull @get_ifcp_pdu_len, ptr noundef nonnull @dissect_ifcp_pdu, ptr noundef %3)
  %19 = tail call i32 @tvb_captured_length(ptr noundef %0)
  %20 = load ptr, ptr @ifcp_handle, align 8
  %.not = icmp eq ptr %20, null
  br i1 %.not, label %ifcp_header_test.exit.thread, label %21

21:                                               ; preds = %16
  %22 = tail call ptr @find_or_create_conversation(ptr noundef %1)
  %23 = load ptr, ptr @ifcp_handle, align 8
  tail call void @conversation_set_dissector(ptr noundef %22, ptr noundef %23)
  br label %ifcp_header_test.exit.thread

ifcp_header_test.exit.thread:                     ; preds = %9, %7, %4, %16, %21, %ifcp_header_test.exit
  %.0.i9 = phi i1 [ true, %16 ], [ true, %21 ], [ false, %ifcp_header_test.exit ], [ false, %4 ], [ false, %7 ], [ false, %9 ]
  ret i1 %.0.i9
}